; Function Attrs: nounwind uwtable
define noalias noundef ptr @Patt_ManPatternErrorCoverage(ptr noundef readonly captures(none) %0, i32 noundef %1) local_unnamed_addr #0 {
  %3 = getelementptr i8, ptr %0, i64 4
  %.val = load i32, ptr %3, align 4, !tbaa !138
  %4 = sdiv i32 %.val, %1
  %5 = tail call ptr @Patt_ManTransposeErrors(ptr noundef %0, i32 noundef %1)
  %6 = shl nsw i32 %4, 6
  %7 = tail call ptr @Patt_ManOutputErrorCoverage(ptr noundef %5, i32 noundef %6)
  %8 = getelementptr inbounds nuw i8, ptr %5, i64 8
  %9 = load ptr, ptr %8, align 8, !tbaa !136
  %.not.i = icmp eq ptr %9, null
  br i1 %.not.i, label %Vec_WrdFree.exit, label %10

10:                                               ; preds = %2
  tail call void @free(ptr noundef nonnull %9) #27
  br label %Vec_WrdFree.exit

Vec_WrdFree.exit:                                 ; preds = %2, %10
  tail call void @free(ptr noundef nonnull %5) #27
  ret ptr %7
}